target datalayout = "e-m:e-p270:32:32-p271:32:32-p272:64:64-i64:64-i128:128-f80:128-n8:16:32:64-S128"
target triple = "x86_64-unknown-linux-gnu"

%struct.redisServer = type { i32, i64, ptr, ptr, ptr, i32, i32, i32, i32, i32, ptr, ptr, ptr, ptr, ptr, ptr, i32, i32, i64, i32, i32, i32, i32, ptr, i32, i32, [41 x i8], i32, i64, i32, i32, i32, ptr, ptr, i32, i32, i64, ptr, ptr, ptr, ptr, [2 x i32], i32, i32, i32, i32, i32, [16 x ptr], i32, ptr, ptr, i32, [8 x %struct.connListener], i32, %struct.connListener, ptr, ptr, ptr, ptr, ptr, ptr, ptr, ptr, ptr, ptr, i32, ptr, i32, ptr, [3 x %struct.pause_event], [256 x i8], ptr, i64, i32, i32, i32, i32, i64, i32, i32, i32, i32, i32, i64, i64, i64, i64, i64, i64, i64, i64, i64, double, i64, i64, i64, i64, i64, i64, i64, i64, i64, i64, i64, i64, i64, i64, i64, i64, i64, i64, i64, i64, double, i64, i64, i64, i64, i64, ptr, i64, i64, i64, %struct.malloc_stats, i64, i64, i64, i64, i64, i64, i64, i64, i64, i64, i64, i64, double, [4 x i64], i64, i64, i64, i64, i64, i64, i64, i64, i64, i64, [7 x %struct.anon], i64, i64, i64, i64, i64, i64, [4 x %struct.durationStats], i32, i32, i32, i32, i32, i32, i32, i32, i32, i32, i64, i32, i32, i32, i32, i64, i64, i32, i32, i32, i32, i32, ptr, [3 x %struct.clientBufferLimitsConfig], i32, i32, ptr, i32, i32, i32, i32, ptr, ptr, i32, i32, i64, i64, i64, i64, i64, i32, i32, ptr, i32, i32, i64, i64, i64, i64, i64, i32, i32, i64, i32, i32, i32, i32, i32, i32, i32, i32, ptr, i32, i64, i64, i64, i64, ptr, i32, ptr, i32, i32, i32, i64, i64, i64, i64, i32, i32, i32, i32, i32, i32, ptr, i32, i32, ptr, i32, i32, i32, [2 x i32], i32, %struct.redisOpArray, i32, ptr, i32, ptr, i32, i32, i32, i32, i32, i32, i32, [41 x i8], [41 x i8], i64, i64, i64, i64, i32, i32, ptr, i64, i64, i64, i32, i32, i32, i32, i32, i32, i32, i64, ptr, ptr, ptr, ptr, i32, i32, ptr, ptr, i32, i32, i64, i64, i64, ptr, i32, ptr, i64, i32, i32, i32, i64, i32, i32, i32, i32, ptr, i32, i32, [41 x i8], i64, i32, ptr, i32, i32, i64, i64, i32, i32, i32, i32, i32, i64, [3 x i32], i32, i32, i32, [9 x i32], ptr, ptr, i32, i64, ptr, ptr, i32, i32, i32, i32, i64, i64, i64, i64, i64, i64, i64, i64, i64, i64, i32, i32, i64, i64, i32, i64, i64, i64, i64, i64, ptr, ptr, i32, ptr, i32, i32, i32, i64, i64, ptr, ptr, i32, i32, i32, i32, i32, ptr, ptr, ptr, i32, i32, i32, i32, i32, i32, i32, i64, i32, i64, i32, i32, i32, i32, i32, i32, i32, i64, ptr, ptr, i64, ptr, i32, %struct.aclInfo, i32, i64, i32, i32, i32, %struct.redisTLSContextConfig, ptr, ptr, ptr, ptr, ptr, i64, i32, ptr, i32, i32, i32, i64, i32, ptr }
%struct.connListener = type { [16 x i32], i32, ptr, i32, i32, ptr, ptr }
%struct.pause_event = type { i32, i64 }
%struct.malloc_stats = type { i64, i64, i64, i64, i64 }
%struct.anon = type { i64, i64, [16 x i64], i32 }
%struct.durationStats = type { i64, i64, i64 }
%struct.clientBufferLimitsConfig = type { i64, i64, i64 }
%struct.redisOpArray = type { ptr, i32, i32 }
%struct.aclInfo = type { i64, i64, i64, i64 }
%struct.redisTLSContextConfig = type { ptr, ptr, ptr, ptr, ptr, ptr, ptr, ptr, ptr, ptr, ptr, ptr, i32, i32, i32, i32 }

@server = external global %struct.redisServer, align 8
@.str.258 = private unnamed_addr constant [80 x i8] c"Skipping diskless-load because there are modules that don't handle read errors.\00", align 1
@.str.259 = private unnamed_addr constant [90 x i8] c"Skipping diskless-load because there are modules that are not aware of async replication.\00", align 1

; Function Attrs: nounwind uwtable
define internal i32 @useDisklessLoad() #0 {
entry:
  %enabled = alloca i32, align 4
  %0 = load i32, ptr getelementptr inbounds (%struct.redisServer, ptr @server, i32 0, i32 276), align 8
  %cmp = icmp eq i32 %0, 2
  br i1 %cmp, label %lor.end, label %lor.rhs

lor.rhs:                                          ; preds = %entry
  %1 = load i32, ptr getelementptr inbounds (%struct.redisServer, ptr @server, i32 0, i32 276), align 8
  %cmp1 = icmp eq i32 %1, 1
  br i1 %cmp1, label %land.rhs, label %land.end

land.rhs:                                         ; preds = %lor.rhs
  %call = call i64 @dbTotalServerKeyCount()
  %cmp2 = icmp eq i64 %call, 0
  br label %land.end

land.end:                                         ; preds = %land.rhs, %lor.rhs
  %2 = phi i1 [ false, %lor.rhs ], [ %cmp2, %land.rhs ]
  br label %lor.end

lor.end:                                          ; preds = %land.end, %entry
  %3 = phi i1 [ true, %entry ], [ %2, %land.end ]
  %lor.ext = zext i1 %3 to i32
  store i32 %lor.ext, ptr %enabled, align 4
  %4 = load i32, ptr %enabled, align 4
  %tobool = icmp ne i32 %4, 0
  br i1 %tobool, label %if.then, label %if.end19

if.then:                                          ; preds = %lor.end
  %call3 = call i32 @moduleAllDatatypesHandleErrors()
  %tobool4 = icmp ne i32 %call3, 0
  br i1 %tobool4, label %if.else, label %if.then5

if.then5:                                         ; preds = %if.then
  br label %do.body

do.body:                                          ; preds = %if.then5
  %5 = load i32, ptr getelementptr inbounds (%struct.redisServer, ptr @server, i32 0, i32 156), align 8
  %cmp6 = icmp slt i32 2, %5
  br i1 %cmp6, label %if.then7, label %if.end

if.then7:                                         ; preds = %do.body
  br label %do.end

if.end:                                           ; preds = %do.body
  call void (i32, ptr, ...) @_serverLog(i32 noundef 2, ptr noundef @.str.258)
  br label %do.end

do.end:                                           ; preds = %if.end, %if.then7
  store i32 0, ptr %enabled, align 4
  br label %if.end18

if.else:                                          ; preds = %if.then
  %6 = load i32, ptr getelementptr inbounds (%struct.redisServer, ptr @server, i32 0, i32 276), align 8
  %cmp8 = icmp eq i32 %6, 2
  br i1 %cmp8, label %land.lhs.true, label %if.end17

land.lhs.true:                                    ; preds = %if.else
  %call9 = call i32 @moduleAllModulesHandleReplAsyncLoad()
  %tobool10 = icmp ne i32 %call9, 0
  br i1 %tobool10, label %if.end17, label %if.then11

if.then11:                                        ; preds = %land.lhs.true
  br label %do.body12

do.body12:                                        ; preds = %if.then11
  %7 = load i32, ptr getelementptr inbounds (%struct.redisServer, ptr @server, i32 0, i32 156), align 8
  %cmp13 = icmp slt i32 2, %7
  br i1 %cmp13, label %if.then14, label %if.end15

if.then14:                                        ; preds = %do.body12
  br label %do.end16

if.end15:                                         ; preds = %do.body12
  call void (i32, ptr, ...) @_serverLog(i32 noundef 2, ptr noundef @.str.259)
  br label %do.end16

do.end16:                                         ; preds = %if.end15, %if.then14
  store i32 0, ptr %enabled, align 4
  br label %if.end17

if.end17:                                         ; preds = %do.end16, %land.lhs.true, %if.else
  br label %if.end18

if.end18:                                         ; preds = %if.end17, %do.end
  br label %if.end19

if.end19:                                         ; preds = %if.end18, %lor.end
  %8 = load i32, ptr %enabled, align 4
  ret i32 %8
}