; Function Attrs: nounwind uwtable
define internal fastcc noundef i32 @useDisklessLoad() unnamed_addr #0 {
entry:
  %0 = load i32, ptr getelementptr inbounds (%struct.redisServer, ptr @server, i64 0, i32 276), align 8
  switch i32 %0, label %if.end19 [
    i32 2, label %if.then
    i32 1, label %lor.end
  ]

lor.end:                                          ; preds = %entry
  %call = tail call i64 @dbTotalServerKeyCount() #21
  %cmp2 = icmp eq i64 %call, 0
  br i1 %cmp2, label %if.then, label %if.end19

if.then:                                          ; preds = %entry, %lor.end
  %call3 = tail call i32 @moduleAllDatatypesHandleErrors() #21
  %tobool4.not = icmp eq i32 %call3, 0
  br i1 %tobool4.not, label %do.body, label %if.else

do.body:                                          ; preds = %if.then
  %1 = load i32, ptr getelementptr inbounds (%struct.redisServer, ptr @server, i64 0, i32 156), align 8
  %cmp6 = icmp sgt i32 %1, 2
  br i1 %cmp6, label %if.end19, label %if.end19.sink.split

if.else:                                          ; preds = %if.then
  %2 = load i32, ptr getelementptr inbounds (%struct.redisServer, ptr @server, i64 0, i32 276), align 8
  %cmp8 = icmp eq i32 %2, 2
  br i1 %cmp8, label %land.lhs.true, label %if.end19

land.lhs.true:                                    ; preds = %if.else
  %call9 = tail call i32 @moduleAllModulesHandleReplAsyncLoad() #21
  %tobool10.not = icmp eq i32 %call9, 0
  br i1 %tobool10.not, label %do.body12, label %if.end19

do.body12:                                        ; preds = %land.lhs.true
  %3 = load i32, ptr getelementptr inbounds (%struct.redisServer, ptr @server, i64 0, i32 156), align 8
  %cmp13 = icmp sgt i32 %3, 2
  br i1 %cmp13, label %if.end19, label %if.end19.sink.split

if.end19.sink.split:                              ; preds = %do.body12, %do.body
  %.str.259.sink = phi ptr [ @.str.258, %do.body ], [ @.str.259, %do.body12 ]
  tail call void (i32, ptr, ...) @_serverLog(i32 noundef 2, ptr noundef nonnull %.str.259.sink) #21
  br label %if.end19

if.end19:                                         ; preds = %if.end19.sink.split, %entry, %do.body12, %do.body, %land.lhs.true, %if.else, %lor.end
  %enabled.0.shrunk = phi i32 [ 1, %land.lhs.true ], [ 1, %if.else ], [ 0, %lor.end ], [ 0, %do.body ], [ 0, %do.body12 ], [ 0, %entry ], [ 0, %if.end19.sink.split ]
  ret i32 %enabled.0.shrunk
}